target datalayout = "e-m:e-p270:32:32-p271:32:32-p272:64:64-i64:64-i128:128-f80:128-n8:16:32:64-S128"
target triple = "x86_64-pc-linux-gnu"

%struct.nghttp2_map = type { ptr, ptr, i64, i64 }
%struct.nghttp2_map_bucket = type { i32, i32, ptr }

; Function Attrs: nounwind uwtable
define hidden i32 @nghttp2_map_each(ptr noundef %0, ptr noundef %1, ptr noundef %2) #0 {
  %4 = alloca i32, align 4
  %5 = alloca ptr, align 8
  %6 = alloca ptr, align 8
  %7 = alloca ptr, align 8
  %8 = alloca i32, align 4
  %9 = alloca i64, align 8
  %10 = alloca ptr, align 8
  %11 = alloca i64, align 8
  %12 = alloca i32, align 4
  store ptr %0, ptr %5, align 8, !tbaa !3
  store ptr %1, ptr %6, align 8, !tbaa !8
  store ptr %2, ptr %7, align 8, !tbaa !8
  call void @llvm.lifetime.start.p0(i64 4, ptr %8) #7
  call void @llvm.lifetime.start.p0(i64 8, ptr %9) #7
  call void @llvm.lifetime.start.p0(i64 8, ptr %10) #7
  call void @llvm.lifetime.start.p0(i64 8, ptr %11) #7
  %13 = load ptr, ptr %5, align 8, !tbaa !3
  %14 = getelementptr inbounds nuw %struct.nghttp2_map, ptr %13, i32 0, i32 2
  %15 = load i64, ptr %14, align 8, !tbaa !15
  %16 = icmp eq i64 %15, 0
  br i1 %16, label %17, label %18

17:                                               ; preds = %3
  store i32 0, ptr %4, align 4
  store i32 1, ptr %12, align 4
  br label %56

18:                                               ; preds = %3
  %19 = load ptr, ptr %5, align 8, !tbaa !3
  %20 = getelementptr inbounds nuw %struct.nghttp2_map, ptr %19, i32 0, i32 3
  %21 = load i64, ptr %20, align 8, !tbaa !13
  %22 = trunc i64 %21 to i32
  %23 = shl i32 1, %22
  %24 = zext i32 %23 to i64
  store i64 %24, ptr %11, align 8, !tbaa !16
  store i64 0, ptr %9, align 8, !tbaa !16
  br label %25

25:                                               ; preds = %52, %18
  %26 = load i64, ptr %9, align 8, !tbaa !16
  %27 = load i64, ptr %11, align 8, !tbaa !16
  %28 = icmp ult i64 %26, %27
  br i1 %28, label %29, label %55

29:                                               ; preds = %25
  %30 = load ptr, ptr %5, align 8, !tbaa !3
  %31 = getelementptr inbounds nuw %struct.nghttp2_map, ptr %30, i32 0, i32 0
  %32 = load ptr, ptr %31, align 8, !tbaa !14
  %33 = load i64, ptr %9, align 8, !tbaa !16
  %34 = getelementptr inbounds nuw %struct.nghttp2_map_bucket, ptr %32, i64 %33
  store ptr %34, ptr %10, align 8, !tbaa !17
  %35 = load ptr, ptr %10, align 8, !tbaa !17
  %36 = getelementptr inbounds nuw %struct.nghttp2_map_bucket, ptr %35, i32 0, i32 2
  %37 = load ptr, ptr %36, align 8, !tbaa !18
  %38 = icmp eq ptr %37, null
  br i1 %38, label %39, label %40

39:                                               ; preds = %29
  br label %52

40:                                               ; preds = %29
  %41 = load ptr, ptr %6, align 8, !tbaa !8
  %42 = load ptr, ptr %10, align 8, !tbaa !17
  %43 = getelementptr inbounds nuw %struct.nghttp2_map_bucket, ptr %42, i32 0, i32 2
  %44 = load ptr, ptr %43, align 8, !tbaa !18
  %45 = load ptr, ptr %7, align 8, !tbaa !8
  %46 = call i32 %41(ptr noundef %44, ptr noundef %45)
  store i32 %46, ptr %8, align 4, !tbaa !21
  %47 = load i32, ptr %8, align 4, !tbaa !21
  %48 = icmp ne i32 %47, 0
  br i1 %48, label %49, label %51

49:                                               ; preds = %40
  %50 = load i32, ptr %8, align 4, !tbaa !21
  store i32 %50, ptr %4, align 4
  store i32 1, ptr %12, align 4
  br label %56

51:                                               ; preds = %40
  br label %52

52:                                               ; preds = %51, %39
  %53 = load i64, ptr %9, align 8, !tbaa !16
  %54 = add i64 %53, 1
  store i64 %54, ptr %9, align 8, !tbaa !16
  br label %25, !llvm.loop !22

55:                                               ; preds = %25
  store i32 0, ptr %4, align 4
  store i32 1, ptr %12, align 4
  br label %56

56:                                               ; preds = %55, %49, %17
  call void @llvm.lifetime.end.p0(i64 8, ptr %11) #7
  call void @llvm.lifetime.end.p0(i64 8, ptr %10) #7
  call void @llvm.lifetime.end.p0(i64 8, ptr %9) #7
  call void @llvm.lifetime.end.p0(i64 4, ptr %8) #7
  %57 = load i32, ptr %4, align 4
  ret i32 %57
}