; Function Attrs: nounwind uwtable
define hidden i32 @nghttp2_map_each(ptr noundef readonly captures(none) %0, ptr noundef readonly captures(none) %1, ptr noundef %2) local_unnamed_addr #1 {
  %4 = getelementptr inbounds nuw i8, ptr %0, i64 16
  %5 = load i64, ptr %4, align 8, !tbaa !11
  %6 = icmp eq i64 %5, 0
  br i1 %6, label %.loopexit, label %7

7:                                                ; preds = %3
  %8 = getelementptr inbounds nuw i8, ptr %0, i64 24
  %9 = load i64, ptr %8, align 8, !tbaa !12
  %10 = trunc i64 %9 to i32
  %11 = shl nuw i32 1, %10
  %12 = zext i32 %11 to i64
  br label %13

13:                                               ; preds = %7, %20
  %.01316 = phi i64 [ 0, %7 ], [ %21, %20 ]
  %14 = load ptr, ptr %0, align 8, !tbaa !10
  %15 = getelementptr inbounds nuw %struct.nghttp2_map_bucket, ptr %14, i64 %.01316, i32 2
  %16 = load ptr, ptr %15, align 8, !tbaa !13
  %17 = icmp eq ptr %16, null
  br i1 %17, label %20, label %18

18:                                               ; preds = %13
  %19 = tail call i32 %1(ptr noundef nonnull %16, ptr noundef %2) #12
  %.not = icmp eq i32 %19, 0
  br i1 %.not, label %20, label %.loopexit

20:                                               ; preds = %18, %13
  %21 = add nuw nsw i64 %.01316, 1
  %exitcond.not = icmp eq i64 %21, %12
  br i1 %exitcond.not, label %.loopexit, label %13, !llvm.loop !16

.loopexit:                                        ; preds = %20, %18, %3
  %.0 = phi i32 [ 0, %3 ], [ 0, %20 ], [ %19, %18 ]
  ret i32 %.0
}